; Function Attrs: nounwind uwtable
define void @ossl_provider_deinit_child(ptr noundef %0) local_unnamed_addr #0 {
  %2 = tail call ptr @ossl_lib_ctx_get_data(ptr noundef %0, i32 noundef 18) #2
  %3 = icmp eq ptr %2, null
  br i1 %3, label %8, label %4

4:                                                ; preds = %1
  %5 = getelementptr inbounds nuw i8, ptr %2, i64 40
  %6 = load ptr, ptr %5, align 8, !tbaa !16
  %7 = load ptr, ptr %2, align 8, !tbaa !9
  tail call void %6(ptr noundef %7) #2
  br label %8

8:                                                ; preds = %1, %4
  ret void
}